; Function Attrs: nounwind uwtable
define dso_local void @logicalrep_write_begin_prepare(ptr noundef %0, ptr noundef readonly captures(none) %1) local_unnamed_addr #0 {
  tail call void @enlargeStringInfo(ptr noundef %0, i32 noundef 1) #8
  tail call void @llvm.experimental.noalias.scope.decl(metadata !31)
  %3 = load ptr, ptr %0, align 8, !alias.scope !31
  %4 = getelementptr inbounds nuw i8, ptr %0, i64 8
  %5 = load i32, ptr %4, align 8, !alias.scope !31
  %6 = sext i32 %5 to i64
  %7 = getelementptr inbounds i8, ptr %3, i64 %6
  store i8 98, ptr %7, align 1, !noalias !31
  %8 = add i32 %5, 1
  store i32 %8, ptr %4, align 8, !alias.scope !31
  %9 = getelementptr inbounds nuw i8, ptr %1, i64 32
  %10 = load i64, ptr %9, align 8
  tail call void @enlargeStringInfo(ptr noundef nonnull %0, i32 noundef 8) #8
  tail call void @llvm.experimental.noalias.scope.decl(metadata !34)
  %11 = tail call i64 @llvm.bswap.i64(i64 %10)
  %12 = load ptr, ptr %0, align 8, !alias.scope !34
  %13 = load i32, ptr %4, align 8, !alias.scope !34
  %14 = sext i32 %13 to i64
  %15 = getelementptr inbounds i8, ptr %12, i64 %14
  store i64 %11, ptr %15, align 1, !noalias !34
  %16 = add i32 %13, 8
  store i32 %16, ptr %4, align 8, !alias.scope !34
  %17 = getelementptr inbounds nuw i8, ptr %1, i64 40
  %18 = load i64, ptr %17, align 8
  tail call void @enlargeStringInfo(ptr noundef nonnull %0, i32 noundef 8) #8
  tail call void @llvm.experimental.noalias.scope.decl(metadata !37)
  %19 = tail call i64 @llvm.bswap.i64(i64 %18)
  %20 = load ptr, ptr %0, align 8, !alias.scope !37
  %21 = load i32, ptr %4, align 8, !alias.scope !37
  %22 = sext i32 %21 to i64
  %23 = getelementptr inbounds i8, ptr %20, i64 %22
  store i64 %19, ptr %23, align 1, !noalias !37
  %24 = add i32 %21, 8
  store i32 %24, ptr %4, align 8, !alias.scope !37
  %25 = getelementptr inbounds nuw i8, ptr %1, i64 80
  %26 = load i64, ptr %25, align 8
  tail call void @enlargeStringInfo(ptr noundef nonnull %0, i32 noundef 8) #8
  tail call void @llvm.experimental.noalias.scope.decl(metadata !40)
  %27 = tail call i64 @llvm.bswap.i64(i64 %26)
  %28 = load ptr, ptr %0, align 8, !alias.scope !40
  %29 = load i32, ptr %4, align 8, !alias.scope !40
  %30 = sext i32 %29 to i64
  %31 = getelementptr inbounds i8, ptr %28, i64 %30
  store i64 %27, ptr %31, align 1, !noalias !40
  %32 = add i32 %29, 8
  store i32 %32, ptr %4, align 8, !alias.scope !40
  %33 = getelementptr inbounds nuw i8, ptr %1, i64 4
  %34 = load i32, ptr %33, align 4
  tail call void @enlargeStringInfo(ptr noundef nonnull %0, i32 noundef 4) #8
  tail call void @llvm.experimental.noalias.scope.decl(metadata !43)
  %35 = tail call i32 @llvm.bswap.i32(i32 %34)
  %36 = load ptr, ptr %0, align 8, !alias.scope !43
  %37 = load i32, ptr %4, align 8, !alias.scope !43
  %38 = sext i32 %37 to i64
  %39 = getelementptr inbounds i8, ptr %36, i64 %38
  store i32 %35, ptr %39, align 1, !noalias !43
  %40 = add i32 %37, 4
  store i32 %40, ptr %4, align 8, !alias.scope !43
  %41 = getelementptr inbounds nuw i8, ptr %1, i64 16
  %42 = load ptr, ptr %41, align 8
  tail call void @pq_sendstring(ptr noundef nonnull %0, ptr noundef %42) #8
  ret void
}